; Function Attrs: mustprogress uwtable
define dso_local void @_ZN6spdlog7details11thread_pool8post_logEOSt10shared_ptrINS_12async_loggerEERKNS0_7log_msgENS_21async_overflow_policyE(ptr noundef nonnull align 8 dereferenceable(224) %this, ptr nocapture noundef nonnull align 8 dereferenceable(16) %worker_ptr, ptr noundef nonnull align 8 dereferenceable(96) %msg, i32 noundef %overflow_policy) local_unnamed_addr #0 align 2 personality ptr @__gxx_personality_v0 {
entry:
  %async_m = alloca %"struct.spdlog::details::async_msg", align 8
  call void @_ZN6spdlog7details14log_msg_bufferC2ERKNS0_7log_msgE(ptr noundef nonnull align 8 dereferenceable(384) %async_m, ptr noundef nonnull align 8 dereferenceable(96) %msg)
  %msg_type.i = getelementptr inbounds i8, ptr %async_m, i64 384
  store i32 0, ptr %msg_type.i, align 8
  %worker_ptr.i = getelementptr inbounds i8, ptr %async_m, i64 392
  %_M_refcount4.i.i.i = getelementptr inbounds i8, ptr %worker_ptr, i64 8
  %0 = load <2 x ptr>, ptr %worker_ptr, align 8
  store ptr null, ptr %_M_refcount4.i.i.i, align 8
  store <2 x ptr> %0, ptr %worker_ptr.i, align 8
  store ptr null, ptr %worker_ptr, align 8
  invoke void @_ZN6spdlog7details11thread_pool15post_async_msg_EONS0_9async_msgENS_21async_overflow_policyE(ptr noundef nonnull align 8 dereferenceable(224) %this, ptr noundef nonnull align 8 dereferenceable(408) %async_m, i32 noundef %overflow_policy)
          to label %invoke.cont unwind label %lpad

invoke.cont:                                      ; preds = %entry
  %_M_refcount.i.i.i = getelementptr inbounds i8, ptr %async_m, i64 400
  %1 = load ptr, ptr %_M_refcount.i.i.i, align 8
  %cmp.not.i.i.i.i = icmp eq ptr %1, null
  br i1 %cmp.not.i.i.i.i, label %_ZNSt10shared_ptrIN6spdlog12async_loggerEED2Ev.exit.i, label %if.then.i.i.i.i

if.then.i.i.i.i:                                  ; preds = %invoke.cont
  %_M_use_count.i.i.i.i.i = getelementptr inbounds i8, ptr %1, i64 8
  %2 = load atomic i64, ptr %_M_use_count.i.i.i.i.i acquire, align 8
  %cmp.i.i.i.i.i = icmp eq i64 %2, 4294967297
  %3 = trunc i64 %2 to i32
  br i1 %cmp.i.i.i.i.i, label %if.then.i.i.i.i.i, label %if.end.i.i.i.i.i

if.then.i.i.i.i.i:                                ; preds = %if.then.i.i.i.i
  store i32 0, ptr %_M_use_count.i.i.i.i.i, align 8
  %_M_weak_count.i.i.i.i.i = getelementptr inbounds i8, ptr %1, i64 12
  store i32 0, ptr %_M_weak_count.i.i.i.i.i, align 4
  %vtable.i.i.i.i.i = load ptr, ptr %1, align 8
  %vfn.i.i.i.i.i = getelementptr inbounds i8, ptr %vtable.i.i.i.i.i, i64 16
  %4 = load ptr, ptr %vfn.i.i.i.i.i, align 8
  call void %4(ptr noundef nonnull align 8 dereferenceable(16) %1) #18
  br label %if.end8.sink.split.i.i.i.i.i

if.end.i.i.i.i.i:                                 ; preds = %if.then.i.i.i.i
  %5 = load i8, ptr @__libc_single_threaded, align 1
  %tobool.i.not.i.i.i.i.i = icmp eq i8 %5, 0
  br i1 %tobool.i.not.i.i.i.i.i, label %if.else.i.i.i.i.i.i, label %if.then.i.i.i.i.i.i

if.then.i.i.i.i.i.i:                              ; preds = %if.end.i.i.i.i.i
  %add.i.i.i.i.i.i = add nsw i32 %3, -1
  store i32 %add.i.i.i.i.i.i, ptr %_M_use_count.i.i.i.i.i, align 4
  br label %_ZN9__gnu_cxx27__exchange_and_add_dispatchEPii.exit.i.i.i.i.i

if.else.i.i.i.i.i.i:                              ; preds = %if.end.i.i.i.i.i
  %6 = atomicrmw volatile add ptr %_M_use_count.i.i.i.i.i, i32 -1 acq_rel, align 4
  br label %_ZN9__gnu_cxx27__exchange_and_add_dispatchEPii.exit.i.i.i.i.i

_ZN9__gnu_cxx27__exchange_and_add_dispatchEPii.exit.i.i.i.i.i: ; preds = %if.else.i.i.i.i.i.i, %if.then.i.i.i.i.i.i
  %retval.i.0.i.i.i.i.i = phi i32 [ %3, %if.then.i.i.i.i.i.i ], [ %6, %if.else.i.i.i.i.i.i ]
  %cmp6.i.i.i.i.i = icmp eq i32 %retval.i.0.i.i.i.i.i, 1
  br i1 %cmp6.i.i.i.i.i, label %if.then7.i.i.i.i.i, label %_ZNSt10shared_ptrIN6spdlog12async_loggerEED2Ev.exit.i

if.then7.i.i.i.i.i:                               ; preds = %_ZN9__gnu_cxx27__exchange_and_add_dispatchEPii.exit.i.i.i.i.i
  %vtable.i.i.i.i.i.i.i = load ptr, ptr %1, align 8
  %vfn.i.i.i.i.i.i.i = getelementptr inbounds i8, ptr %vtable.i.i.i.i.i.i.i, i64 16
  %7 = load ptr, ptr %vfn.i.i.i.i.i.i.i, align 8
  call void %7(ptr noundef nonnull align 8 dereferenceable(16) %1) #18
  %_M_weak_count.i.i.i.i.i.i.i = getelementptr inbounds i8, ptr %1, i64 12
  %8 = load i8, ptr @__libc_single_threaded, align 1
  %tobool.i.not.i.i.i.i.i.i.i = icmp eq i8 %8, 0
  br i1 %tobool.i.not.i.i.i.i.i.i.i, label %if.else.i.i.i.i.i.i.i.i, label %if.then.i.i.i.i.i.i.i.i

if.then.i.i.i.i.i.i.i.i:                          ; preds = %if.then7.i.i.i.i.i
  %9 = load i32, ptr %_M_weak_count.i.i.i.i.i.i.i, align 4
  %add.i.i.i.i.i.i.i.i = add nsw i32 %9, -1
  store i32 %add.i.i.i.i.i.i.i.i, ptr %_M_weak_count.i.i.i.i.i.i.i, align 4
  br label %_ZN9__gnu_cxx27__exchange_and_add_dispatchEPii.exit.i.i.i.i.i.i.i

if.else.i.i.i.i.i.i.i.i:                          ; preds = %if.then7.i.i.i.i.i
  %10 = atomicrmw volatile add ptr %_M_weak_count.i.i.i.i.i.i.i, i32 -1 acq_rel, align 4
  br label %_ZN9__gnu_cxx27__exchange_and_add_dispatchEPii.exit.i.i.i.i.i.i.i

_ZN9__gnu_cxx27__exchange_and_add_dispatchEPii.exit.i.i.i.i.i.i.i: ; preds = %if.else.i.i.i.i.i.i.i.i, %if.then.i.i.i.i.i.i.i.i
  %retval.i.0.i.i.i.i.i.i.i = phi i32 [ %9, %if.then.i.i.i.i.i.i.i.i ], [ %10, %if.else.i.i.i.i.i.i.i.i ]
  %cmp.i.i.i.i.i.i.i = icmp eq i32 %retval.i.0.i.i.i.i.i.i.i, 1
  br i1 %cmp.i.i.i.i.i.i.i, label %if.end8.sink.split.i.i.i.i.i, label %_ZNSt10shared_ptrIN6spdlog12async_loggerEED2Ev.exit.i

if.end8.sink.split.i.i.i.i.i:                     ; preds = %_ZN9__gnu_cxx27__exchange_and_add_dispatchEPii.exit.i.i.i.i.i.i.i, %if.then.i.i.i.i.i
  %vtable2.i.i.i.i.i.i.i = load ptr, ptr %1, align 8
  %vfn3.i.i.i.i.i.i.i = getelementptr inbounds i8, ptr %vtable2.i.i.i.i.i.i.i, i64 24
  %11 = load ptr, ptr %vfn3.i.i.i.i.i.i.i, align 8
  call void %11(ptr noundef nonnull align 8 dereferenceable(16) %1) #18
  br label %_ZNSt10shared_ptrIN6spdlog12async_loggerEED2Ev.exit.i

_ZNSt10shared_ptrIN6spdlog12async_loggerEED2Ev.exit.i: ; preds = %if.end8.sink.split.i.i.i.i.i, %_ZN9__gnu_cxx27__exchange_and_add_dispatchEPii.exit.i.i.i.i.i.i.i, %_ZN9__gnu_cxx27__exchange_and_add_dispatchEPii.exit.i.i.i.i.i, %invoke.cont
  %ptr_.i.i.i.i.i = getelementptr inbounds i8, ptr %async_m, i64 104
  %12 = load ptr, ptr %ptr_.i.i.i.i.i, align 8
  %store_.i.i.i.i = getelementptr inbounds i8, ptr %async_m, i64 128
  %cmp.not.i.i.i1.i = icmp eq ptr %12, %store_.i.i.i.i
  br i1 %cmp.not.i.i.i1.i, label %_ZN6spdlog7details9async_msgD2Ev.exit, label %if.then.i.i.i2.i

if.then.i.i.i2.i:                                 ; preds = %_ZNSt10shared_ptrIN6spdlog12async_loggerEED2Ev.exit.i
  call void @_ZdlPv(ptr noundef %12) #21
  br label %_ZN6spdlog7details9async_msgD2Ev.exit

_ZN6spdlog7details9async_msgD2Ev.exit:            ; preds = %_ZNSt10shared_ptrIN6spdlog12async_loggerEED2Ev.exit.i, %if.then.i.i.i2.i
  %alloc_.i.i.i = getelementptr inbounds i8, ptr %async_m, i64 378
  call void @_ZNSaIcED1Ev(ptr noundef nonnull align 1 dereferenceable(1) %alloc_.i.i.i) #18
  ret void

lpad:                                             ; preds = %entry
  %13 = landingpad { ptr, i32 }
          cleanup
  call void @_ZN6spdlog7details9async_msgD2Ev(ptr noundef nonnull align 8 dereferenceable(408) %async_m) #18
  resume { ptr, i32 } %13
}